target datalayout = "e-m:e-p270:32:32-p271:32:32-p272:64:64-i64:64-i128:128-f80:128-n8:16:32:64-S128"
target triple = "x86_64-pc-linux-gnu"

%"struct.cv::Ptr" = type { %"class.std::shared_ptr" }
%"class.std::shared_ptr" = type { %"class.std::__shared_ptr" }
%"class.std::__shared_ptr" = type { ptr, %"class.std::__shared_count" }
%"class.std::__shared_count" = type { ptr }
%"class.std::shared_ptr.0" = type { %"class.std::__shared_ptr.1" }
%"class.std::__shared_ptr.1" = type { ptr, %"class.std::__shared_count" }
%"class.std::shared_ptr.3" = type { %"class.std::__shared_ptr.4" }
%"class.std::__shared_ptr.4" = type { ptr, %"class.std::__shared_count" }
%"class.cv::wechat_qrcode::WeChatQRCode" = type { %"struct.cv::Ptr" }
%"class.cv::wechat_qrcode::WeChatQRCode::Impl" = type { %"class.std::shared_ptr.0", %"class.std::shared_ptr.3", i8, i8, float }

; Function Attrs: mustprogress nounwind uwtable
define linkonce_odr hidden noundef ptr @_ZNKSt12__shared_ptrIN2cv13wechat_qrcode12WeChatQRCode4ImplELN9__gnu_cxx12_Lock_policyE2EE3getEv(ptr noundef nonnull align 8 dereferenceable(16) %0) #2 comdat align 2 {
  %2 = alloca ptr, align 8
  store ptr %0, ptr %2, align 8, !tbaa !239
  %3 = load ptr, ptr %2, align 8
  %4 = getelementptr inbounds nuw %"class.std::__shared_ptr", ptr %3, i32 0, i32 0
  %5 = load ptr, ptr %4, align 8, !tbaa !241
  ret ptr %5
}

; Function Attrs: mustprogress nounwind uwtable
define linkonce_odr hidden noundef ptr @_ZNK2cv3PtrINS_13wechat_qrcode12WeChatQRCode4ImplEEptEv(ptr noundef nonnull align 8 dereferenceable(16) %0) #2 comdat align 2 {
  %2 = alloca ptr, align 8
  store ptr %0, ptr %2, align 8, !tbaa !29
  %3 = load ptr, ptr %2, align 8
  %4 = call noundef ptr @_ZNKSt12__shared_ptrIN2cv13wechat_qrcode12WeChatQRCode4ImplELN9__gnu_cxx12_Lock_policyE2EE3getEv(ptr noundef nonnull align 8 dereferenceable(16) %3) #3
  ret ptr %4
}

; Function Attrs: mustprogress nounwind uwtable
define void @_ZN2cv13wechat_qrcode12WeChatQRCode14setScaleFactorEf(ptr noundef nonnull align 8 dereferenceable(16) %0, float noundef %1) #2 align 2 {
  %3 = alloca ptr, align 8
  %4 = alloca float, align 4
  store ptr %0, ptr %3, align 8, !tbaa !10
  store float %1, ptr %4, align 4, !tbaa !75
  %5 = load ptr, ptr %3, align 8
  %6 = load float, ptr %4, align 4, !tbaa !75
  %7 = fcmp ogt float %6, 0.000000e+00
  br i1 %7, label %8, label %16

8:                                                ; preds = %2
  %9 = load float, ptr %4, align 4, !tbaa !75
  %10 = fcmp ole float %9, 1.000000e+00
  br i1 %10, label %11, label %16

11:                                               ; preds = %8
  %12 = load float, ptr %4, align 4, !tbaa !75
  %13 = getelementptr inbounds nuw %"class.cv::wechat_qrcode::WeChatQRCode", ptr %5, i32 0, i32 0
  %14 = call noundef ptr @_ZNK2cv3PtrINS_13wechat_qrcode12WeChatQRCode4ImplEEptEv(ptr noundef nonnull align 8 dereferenceable(16) %13) #3
  %15 = getelementptr inbounds nuw %"class.cv::wechat_qrcode::WeChatQRCode::Impl", ptr %14, i32 0, i32 4
  store float %12, ptr %15, align 4, !tbaa !100
  br label %20

16:                                               ; preds = %8, %2
  %17 = getelementptr inbounds nuw %"class.cv::wechat_qrcode::WeChatQRCode", ptr %5, i32 0, i32 0
  %18 = call noundef ptr @_ZNK2cv3PtrINS_13wechat_qrcode12WeChatQRCode4ImplEEptEv(ptr noundef nonnull align 8 dereferenceable(16) %17) #3
  %19 = getelementptr inbounds nuw %"class.cv::wechat_qrcode::WeChatQRCode::Impl", ptr %18, i32 0, i32 4
  store float -1.000000e+00, ptr %19, align 4, !tbaa !100
  br label %20

20:                                               ; preds = %16, %11
  ret void
}