; Function Attrs: mustprogress nofree norecurse nosync nounwind willreturn memory(write, argmem: readwrite, inaccessiblemem: none) uwtable
define void @_ZN2cv13wechat_qrcode12WeChatQRCode14setScaleFactorEf(ptr noundef nonnull readonly align 8 captures(none) dereferenceable(16) %0, float noundef %1) local_unnamed_addr #8 align 2 {
  %3 = fcmp ogt float %1, 0.000000e+00
  %4 = fcmp ole float %1, 1.000000e+00
  %or.cond = and i1 %3, %4
  %5 = load ptr, ptr %0, align 8, !tbaa !35
  %6 = getelementptr inbounds nuw i8, ptr %5, i64 36
  %. = select i1 %or.cond, float %1, float -1.000000e+00
  store float %., ptr %6, align 4, !tbaa !23
  ret void
}